target datalayout = "e-m:e-p270:32:32-p271:32:32-p272:64:64-i64:64-i128:128-f80:128-n8:16:32:64-S128"
target triple = "x86_64-pc-linux-gnu"

@.str.11 = private unnamed_addr constant [3 x i8] c",\0A\00", align 1

; Function Attrs: nounwind uwtable
define internal void @write_subg(ptr noundef %0, ptr noundef %1, ptr noundef %2) #0 {
  %4 = alloca ptr, align 8
  %5 = alloca ptr, align 8
  %6 = alloca ptr, align 8
  %7 = alloca ptr, align 8
  store ptr %0, ptr %4, align 8, !tbaa !35
  store ptr %1, ptr %5, align 8, !tbaa !3
  store ptr %2, ptr %6, align 8, !tbaa !100
  call void @llvm.lifetime.start.p0(i64 8, ptr %7) #9
  %8 = load ptr, ptr %4, align 8, !tbaa !35
  %9 = load ptr, ptr %5, align 8, !tbaa !3
  %10 = load ptr, ptr %6, align 8, !tbaa !100
  call void @write_graph(ptr noundef %8, ptr noundef %9, i1 noundef zeroext false, ptr noundef %10)
  %11 = load ptr, ptr %4, align 8, !tbaa !35
  %12 = call ptr @agfstsubg(ptr noundef %11)
  store ptr %12, ptr %7, align 8, !tbaa !35
  br label %13

13:                                               ; preds = %22, %3
  %14 = load ptr, ptr %7, align 8, !tbaa !35
  %15 = icmp ne ptr %14, null
  br i1 %15, label %16, label %25

16:                                               ; preds = %13
  %17 = load ptr, ptr %5, align 8, !tbaa !3
  %18 = call i32 @gvputs(ptr noundef %17, ptr noundef @.str.11)
  %19 = load ptr, ptr %7, align 8, !tbaa !35
  %20 = load ptr, ptr %5, align 8, !tbaa !3
  %21 = load ptr, ptr %6, align 8, !tbaa !100
  call void @write_subg(ptr noundef %19, ptr noundef %20, ptr noundef %21)
  br label %22

22:                                               ; preds = %16
  %23 = load ptr, ptr %7, align 8, !tbaa !35
  %24 = call ptr @agnxtsubg(ptr noundef %23)
  store ptr %24, ptr %7, align 8, !tbaa !35
  br label %13, !llvm.loop !178

25:                                               ; preds = %13
  call void @llvm.lifetime.end.p0(i64 8, ptr %7) #9
  ret void
}