; Function Attrs: nounwind uwtable
define internal fastcc void @write_subg(ptr noundef nonnull %0, ptr noundef %1, ptr noundef nonnull captures(none) %2) unnamed_addr #0 {
  tail call fastcc void @write_graph(ptr noundef nonnull %0, ptr noundef %1, i1 noundef zeroext false, ptr noundef %2)
  %4 = tail call ptr @agfstsubg(ptr noundef nonnull %0) #15
  %.not10 = icmp eq ptr %4, null
  br i1 %.not10, label %._crit_edge, label %.lr.ph

.lr.ph:                                           ; preds = %3, %.lr.ph
  %.011 = phi ptr [ %6, %.lr.ph ], [ %4, %3 ]
  %5 = tail call i32 @gvputs(ptr noundef %1, ptr noundef nonnull @.str.11) #15
  tail call fastcc void @write_subg(ptr noundef %.011, ptr noundef %1, ptr noundef %2)
  %6 = tail call ptr @agnxtsubg(ptr noundef nonnull %.011) #15
  %.not = icmp eq ptr %6, null
  br i1 %.not, label %._crit_edge, label %.lr.ph, !llvm.loop !165

._crit_edge:                                      ; preds = %.lr.ph, %3
  ret void
}